target datalayout = "e-m:e-p270:32:32-p271:32:32-p272:64:64-i64:64-i128:128-f80:128-n8:16:32:64-S128"
target triple = "x86_64-pc-linux-gnu"

%struct.SDL_GUID = type { [16 x i8] }
%struct.SDL_VirtualJoystickDesc = type { i32, i16, i16, i16, i16, i16, i16, i16, i16, i16, i16, [2 x i16], i32, i32, ptr, ptr, ptr, ptr, ptr, ptr, ptr, ptr, ptr, ptr, ptr, ptr }
%struct.joystick_hwdata = type { i32, i8, ptr, i32, %struct.SDL_GUID, %struct.SDL_VirtualJoystickDesc, i32, ptr, ptr, ptr, ptr, ptr, ptr, i8, i32, i32, ptr, ptr, ptr }
%struct.SDL_JoystickTouchpadInfo = type { i32, ptr }
%struct.SDL_Joystick = type { i32, ptr, ptr, ptr, %struct.SDL_GUID, i16, i64, i8, i8, i32, ptr, i32, ptr, i32, ptr, i32, ptr, i32, ptr, i32, i32, ptr, i16, i16, i64, i64, i16, i16, i64, i64, i8, i8, i8, i64, i8, i32, i32, i32, i8, i32, ptr, i32, ptr, [3 x [3 x float]], i64, ptr, ptr, i32, i32, ptr }
%struct.SDL_JoystickTouchpadFingerInfo = type { i8, float, float, float }

@.str.16 = private unnamed_addr constant [17 x i8] c"Invalid joystick\00", align 1
@.str.21 = private unnamed_addr constant [23 x i8] c"Invalid touchpad index\00", align 1
@.str.22 = private unnamed_addr constant [21 x i8] c"Invalid finger index\00", align 1

; Function Attrs: nounwind uwtable
define hidden zeroext i1 @SDL_SetJoystickVirtualTouchpadInner(ptr noundef %0, i32 noundef %1, i32 noundef %2, i1 noundef zeroext %3, float noundef %4, float noundef %5, float noundef %6) #0 {
  %8 = alloca i1, align 1
  %9 = alloca ptr, align 8
  %10 = alloca i32, align 4
  %11 = alloca i32, align 4
  %12 = alloca i8, align 1
  %13 = alloca float, align 4
  %14 = alloca float, align 4
  %15 = alloca float, align 4
  %16 = alloca ptr, align 8
  %17 = alloca i32, align 4
  %18 = alloca ptr, align 8
  store ptr %0, ptr %9, align 8
  store i32 %1, ptr %10, align 4
  store i32 %2, ptr %11, align 4
  %19 = zext i1 %3 to i8
  store i8 %19, ptr %12, align 1
  store float %4, ptr %13, align 4
  store float %5, ptr %14, align 4
  store float %6, ptr %15, align 4
  call void @llvm.lifetime.start.p0(i64 8, ptr %16) #7
  call void @SDL_AssertJoysticksLocked()
  %20 = load ptr, ptr %9, align 8
  %21 = icmp ne ptr %20, null
  br i1 %21, label %22, label %27

22:                                               ; preds = %7
  %23 = load ptr, ptr %9, align 8
  %24 = getelementptr inbounds nuw %struct.SDL_Joystick, ptr %23, i32 0, i32 46
  %25 = load ptr, ptr %24, align 8
  %26 = icmp ne ptr %25, null
  br i1 %26, label %29, label %27

27:                                               ; preds = %22, %7
  %28 = call zeroext i1 (ptr, ...) @SDL_SetError_REAL(ptr noundef @.str.16)
  store i1 %28, ptr %8, align 1
  store i32 1, ptr %17, align 4
  br label %91

29:                                               ; preds = %22
  %30 = load ptr, ptr %9, align 8
  %31 = getelementptr inbounds nuw %struct.SDL_Joystick, ptr %30, i32 0, i32 46
  %32 = load ptr, ptr %31, align 8
  store ptr %32, ptr %16, align 8
  %33 = load i32, ptr %10, align 4
  %34 = icmp slt i32 %33, 0
  br i1 %34, label %43, label %35

35:                                               ; preds = %29
  %36 = load i32, ptr %10, align 4
  %37 = load ptr, ptr %16, align 8
  %38 = getelementptr inbounds nuw %struct.joystick_hwdata, ptr %37, i32 0, i32 5
  %39 = getelementptr inbounds nuw %struct.SDL_VirtualJoystickDesc, ptr %38, i32 0, i32 9
  %40 = load i16, ptr %39, align 4
  %41 = zext i16 %40 to i32
  %42 = icmp sge i32 %36, %41
  br i1 %42, label %43, label %45

43:                                               ; preds = %35, %29
  %44 = call zeroext i1 (ptr, ...) @SDL_SetError_REAL(ptr noundef @.str.21)
  store i1 %44, ptr %8, align 1
  store i32 1, ptr %17, align 4
  br label %91

45:                                               ; preds = %35
  %46 = load i32, ptr %11, align 4
  %47 = icmp slt i32 %46, 0
  br i1 %47, label %59, label %48

48:                                               ; preds = %45
  %49 = load i32, ptr %11, align 4
  %50 = load ptr, ptr %16, align 8
  %51 = getelementptr inbounds nuw %struct.joystick_hwdata, ptr %50, i32 0, i32 11
  %52 = load ptr, ptr %51, align 8
  %53 = load i32, ptr %10, align 4
  %54 = sext i32 %53 to i64
  %55 = getelementptr inbounds %struct.SDL_JoystickTouchpadInfo, ptr %52, i64 %54
  %56 = getelementptr inbounds nuw %struct.SDL_JoystickTouchpadInfo, ptr %55, i32 0, i32 0
  %57 = load i32, ptr %56, align 8
  %58 = icmp sge i32 %49, %57
  br i1 %58, label %59, label %61

59:                                               ; preds = %48, %45
  %60 = call zeroext i1 (ptr, ...) @SDL_SetError_REAL(ptr noundef @.str.22)
  store i1 %60, ptr %8, align 1
  store i32 1, ptr %17, align 4
  br label %91

61:                                               ; preds = %48
  call void @llvm.lifetime.start.p0(i64 8, ptr %18) #7
  %62 = load ptr, ptr %16, align 8
  %63 = getelementptr inbounds nuw %struct.joystick_hwdata, ptr %62, i32 0, i32 11
  %64 = load ptr, ptr %63, align 8
  %65 = load i32, ptr %10, align 4
  %66 = sext i32 %65 to i64
  %67 = getelementptr inbounds %struct.SDL_JoystickTouchpadInfo, ptr %64, i64 %66
  %68 = getelementptr inbounds nuw %struct.SDL_JoystickTouchpadInfo, ptr %67, i32 0, i32 1
  %69 = load ptr, ptr %68, align 8
  %70 = load i32, ptr %11, align 4
  %71 = sext i32 %70 to i64
  %72 = getelementptr inbounds %struct.SDL_JoystickTouchpadFingerInfo, ptr %69, i64 %71
  store ptr %72, ptr %18, align 8
  %73 = load i8, ptr %12, align 1, !range !12, !noundef !13
  %74 = trunc i8 %73 to i1
  %75 = load ptr, ptr %18, align 8
  %76 = getelementptr inbounds nuw %struct.SDL_JoystickTouchpadFingerInfo, ptr %75, i32 0, i32 0
  %77 = zext i1 %74 to i8
  store i8 %77, ptr %76, align 4
  %78 = load float, ptr %13, align 4
  %79 = load ptr, ptr %18, align 8
  %80 = getelementptr inbounds nuw %struct.SDL_JoystickTouchpadFingerInfo, ptr %79, i32 0, i32 1
  store float %78, ptr %80, align 4
  %81 = load float, ptr %14, align 4
  %82 = load ptr, ptr %18, align 8
  %83 = getelementptr inbounds nuw %struct.SDL_JoystickTouchpadFingerInfo, ptr %82, i32 0, i32 2
  store float %81, ptr %83, align 4
  %84 = load float, ptr %15, align 4
  %85 = load ptr, ptr %18, align 8
  %86 = getelementptr inbounds nuw %struct.SDL_JoystickTouchpadFingerInfo, ptr %85, i32 0, i32 3
  store float %84, ptr %86, align 4
  %87 = load ptr, ptr %16, align 8
  %88 = getelementptr inbounds nuw %struct.joystick_hwdata, ptr %87, i32 0, i32 6
  %89 = load i32, ptr %88, align 8
  %90 = or i32 %89, 16
  store i32 %90, ptr %88, align 8
  store i1 true, ptr %8, align 1
  store i32 1, ptr %17, align 4
  call void @llvm.lifetime.end.p0(i64 8, ptr %18) #7
  br label %91

91:                                               ; preds = %61, %59, %43, %27
  call void @llvm.lifetime.end.p0(i64 8, ptr %16) #7
  %92 = load i1, ptr %8, align 1
  ret i1 %92
}