; Function Attrs: nounwind uwtable
define hidden zeroext i1 @SDL_SetJoystickVirtualTouchpadInner(ptr noundef readonly captures(address_is_null) %0, i32 noundef %1, i32 noundef %2, i1 noundef zeroext %3, float noundef %4, float noundef %5, float noundef %6) local_unnamed_addr #0 {
  %8 = zext i1 %3 to i8
  tail call void @SDL_AssertJoysticksLocked() #8
  %.not = icmp eq ptr %0, null
  br i1 %.not, label %12, label %9

9:                                                ; preds = %7
  %10 = getelementptr inbounds nuw i8, ptr %0, i64 328
  %11 = load ptr, ptr %10, align 8
  %.not26 = icmp eq ptr %11, null
  br i1 %.not26, label %12, label %14

12:                                               ; preds = %9, %7
  %13 = tail call zeroext i1 (ptr, ...) @SDL_SetError_REAL(ptr noundef nonnull @.str.16) #8
  br label %43

14:                                               ; preds = %9
  %15 = icmp slt i32 %1, 0
  br i1 %15, label %20, label %16

16:                                               ; preds = %14
  %17 = getelementptr inbounds nuw i8, ptr %11, i64 60
  %18 = load i16, ptr %17, align 4
  %19 = zext i16 %18 to i32
  %.not27 = icmp samesign ult i32 %1, %19
  br i1 %.not27, label %22, label %20

20:                                               ; preds = %16, %14
  %21 = tail call zeroext i1 (ptr, ...) @SDL_SetError_REAL(ptr noundef nonnull @.str.21) #8
  br label %43

22:                                               ; preds = %16
  %23 = icmp slt i32 %2, 0
  br i1 %23, label %30, label %24

24:                                               ; preds = %22
  %25 = getelementptr inbounds nuw i8, ptr %11, i64 216
  %26 = load ptr, ptr %25, align 8
  %27 = zext nneg i32 %1 to i64
  %28 = getelementptr inbounds nuw %struct.SDL_JoystickTouchpadInfo, ptr %26, i64 %27
  %29 = load i32, ptr %28, align 8
  %.not28 = icmp slt i32 %2, %29
  br i1 %.not28, label %32, label %30

30:                                               ; preds = %24, %22
  %31 = tail call zeroext i1 (ptr, ...) @SDL_SetError_REAL(ptr noundef nonnull @.str.22) #8
  br label %43

32:                                               ; preds = %24
  %33 = getelementptr inbounds nuw i8, ptr %28, i64 8
  %34 = load ptr, ptr %33, align 8
  %35 = zext nneg i32 %2 to i64
  %36 = getelementptr inbounds nuw %struct.SDL_JoystickTouchpadFingerInfo, ptr %34, i64 %35
  store i8 %8, ptr %36, align 4
  %37 = getelementptr inbounds nuw i8, ptr %36, i64 4
  store float %4, ptr %37, align 4
  %38 = getelementptr inbounds nuw i8, ptr %36, i64 8
  store float %5, ptr %38, align 4
  %39 = getelementptr inbounds nuw i8, ptr %36, i64 12
  store float %6, ptr %39, align 4
  %40 = getelementptr inbounds nuw i8, ptr %11, i64 176
  %41 = load i32, ptr %40, align 8
  %42 = or i32 %41, 16
  store i32 %42, ptr %40, align 8
  br label %43

43:                                               ; preds = %32, %30, %20, %12
  %.0 = phi i1 [ %21, %20 ], [ %31, %30 ], [ true, %32 ], [ %13, %12 ]
  ret i1 %.0
}